target datalayout = "e-m:e-p270:32:32-p271:32:32-p272:64:64-i64:64-i128:128-f80:128-n8:16:32:64-S128"
target triple = "x86_64-pc-linux-gnu"

%struct.FT_Vector_ = type { i64, i64 }
%struct.SDF_Shape_ = type { ptr, ptr }
%struct.SDF_Contour_ = type { %struct.FT_Vector_, ptr, ptr }
%struct.SDF_Edge_ = type { %struct.FT_Vector_, %struct.FT_Vector_, %struct.FT_Vector_, %struct.FT_Vector_, i32, ptr }

@null_edge = internal constant { %struct.FT_Vector_, %struct.FT_Vector_, %struct.FT_Vector_, %struct.FT_Vector_, i32, [4 x i8], ptr } zeroinitializer, align 8

; Function Attrs: nounwind uwtable
define internal i32 @sdf_edge_new(ptr noundef %0, ptr noundef %1) #0 {
  %3 = alloca ptr, align 8
  %4 = alloca ptr, align 8
  %5 = alloca i32, align 4
  %6 = alloca ptr, align 8
  store ptr %0, ptr %3, align 8, !tbaa !38
  store ptr %1, ptr %4, align 8, !tbaa !192
  call void @llvm.lifetime.start.p0(i64 4, ptr %5) #7
  store i32 0, ptr %5, align 4, !tbaa !31
  call void @llvm.lifetime.start.p0(i64 8, ptr %6) #7
  store ptr null, ptr %6, align 8, !tbaa !182
  %7 = load ptr, ptr %3, align 8, !tbaa !38
  %8 = icmp ne ptr %7, null
  br i1 %8, label %9, label %12

9:                                                ; preds = %2
  %10 = load ptr, ptr %4, align 8, !tbaa !192
  %11 = icmp ne ptr %10, null
  br i1 %11, label %13, label %12

12:                                               ; preds = %9, %2
  store i32 6, ptr %5, align 4, !tbaa !31
  br label %23

13:                                               ; preds = %9
  %14 = load ptr, ptr %3, align 8, !tbaa !38
  %15 = call ptr @ft_mem_qalloc(ptr noundef %14, i64 noundef 80, ptr noundef %5)
  store ptr %15, ptr %6, align 8, !tbaa !182
  %16 = load i32, ptr %5, align 4, !tbaa !31
  %17 = icmp ne i32 %16, 0
  br i1 %17, label %22, label %18

18:                                               ; preds = %13
  %19 = load ptr, ptr %6, align 8, !tbaa !182
  call void @llvm.memcpy.p0.p0.i64(ptr align 8 %19, ptr align 8 @null_edge, i64 80, i1 false), !tbaa.struct !194
  %20 = load ptr, ptr %6, align 8, !tbaa !182
  %21 = load ptr, ptr %4, align 8, !tbaa !192
  store ptr %20, ptr %21, align 8, !tbaa !182
  br label %22

22:                                               ; preds = %18, %13
  br label %23

23:                                               ; preds = %22, %12
  %24 = load i32, ptr %5, align 4, !tbaa !31
  call void @llvm.lifetime.end.p0(i64 8, ptr %6) #7
  call void @llvm.lifetime.end.p0(i64 4, ptr %5) #7
  ret i32 %24
}

; Function Attrs: nounwind uwtable
define internal i32 @sdf_line_to(ptr noundef %0, ptr noundef %1) #0 {
  %3 = alloca ptr, align 8
  %4 = alloca ptr, align 8
  %5 = alloca ptr, align 8
  %6 = alloca ptr, align 8
  %7 = alloca ptr, align 8
  %8 = alloca i32, align 4
  %9 = alloca ptr, align 8
  store ptr %0, ptr %3, align 8, !tbaa !32
  store ptr %1, ptr %4, align 8, !tbaa !85
  call void @llvm.lifetime.start.p0(i64 8, ptr %5) #7
  %10 = load ptr, ptr %4, align 8, !tbaa !85
  store ptr %10, ptr %5, align 8, !tbaa !121
  call void @llvm.lifetime.start.p0(i64 8, ptr %6) #7
  store ptr null, ptr %6, align 8, !tbaa !182
  call void @llvm.lifetime.start.p0(i64 8, ptr %7) #7
  store ptr null, ptr %7, align 8, !tbaa !167
  call void @llvm.lifetime.start.p0(i64 4, ptr %8) #7
  store i32 0, ptr %8, align 4, !tbaa !31
  call void @llvm.lifetime.start.p0(i64 8, ptr %9) #7
  %11 = load ptr, ptr %5, align 8, !tbaa !121
  %12 = getelementptr inbounds nuw %struct.SDF_Shape_, ptr %11, i32 0, i32 0
  %13 = load ptr, ptr %12, align 8, !tbaa !169
  store ptr %13, ptr %9, align 8, !tbaa !38
  %14 = load ptr, ptr %3, align 8, !tbaa !32
  %15 = icmp ne ptr %14, null
  br i1 %15, label %16, label %19

16:                                               ; preds = %2
  %17 = load ptr, ptr %4, align 8, !tbaa !85
  %18 = icmp ne ptr %17, null
  br i1 %18, label %20, label %19

19:                                               ; preds = %16, %2
  store i32 6, ptr %8, align 4, !tbaa !31
  br label %72

20:                                               ; preds = %16
  %21 = load ptr, ptr %5, align 8, !tbaa !121
  %22 = getelementptr inbounds nuw %struct.SDF_Shape_, ptr %21, i32 0, i32 1
  %23 = load ptr, ptr %22, align 8, !tbaa !171
  store ptr %23, ptr %7, align 8, !tbaa !167
  %24 = load ptr, ptr %7, align 8, !tbaa !167
  %25 = getelementptr inbounds nuw %struct.SDF_Contour_, ptr %24, i32 0, i32 0
  %26 = getelementptr inbounds nuw %struct.FT_Vector_, ptr %25, i32 0, i32 0
  %27 = load i64, ptr %26, align 8, !tbaa !183
  %28 = load ptr, ptr %3, align 8, !tbaa !32
  %29 = getelementptr inbounds nuw %struct.FT_Vector_, ptr %28, i32 0, i32 0
  %30 = load i64, ptr %29, align 8, !tbaa !67
  %31 = icmp eq i64 %27, %30
  br i1 %31, label %32, label %42

32:                                               ; preds = %20
  %33 = load ptr, ptr %7, align 8, !tbaa !167
  %34 = getelementptr inbounds nuw %struct.SDF_Contour_, ptr %33, i32 0, i32 0
  %35 = getelementptr inbounds nuw %struct.FT_Vector_, ptr %34, i32 0, i32 1
  %36 = load i64, ptr %35, align 8, !tbaa !184
  %37 = load ptr, ptr %3, align 8, !tbaa !32
  %38 = getelementptr inbounds nuw %struct.FT_Vector_, ptr %37, i32 0, i32 1
  %39 = load i64, ptr %38, align 8, !tbaa !68
  %40 = icmp eq i64 %36, %39
  br i1 %40, label %41, label %42

41:                                               ; preds = %32
  br label %72

42:                                               ; preds = %32, %20
  br label %43

43:                                               ; preds = %42
  %44 = load ptr, ptr %9, align 8, !tbaa !38
  %45 = call i32 @sdf_edge_new(ptr noundef %44, ptr noundef %6)
  store i32 %45, ptr %8, align 4, !tbaa !31
  %46 = load i32, ptr %8, align 4, !tbaa !31
  %47 = icmp ne i32 %46, 0
  br i1 %47, label %48, label %49

48:                                               ; preds = %43
  br label %72

49:                                               ; preds = %43
  br label %50

50:                                               ; preds = %49
  br label %51

51:                                               ; preds = %50
  %52 = load ptr, ptr %6, align 8, !tbaa !182
  %53 = getelementptr inbounds nuw %struct.SDF_Edge_, ptr %52, i32 0, i32 4
  store i32 1, ptr %53, align 8, !tbaa !185
  %54 = load ptr, ptr %6, align 8, !tbaa !182
  %55 = getelementptr inbounds nuw %struct.SDF_Edge_, ptr %54, i32 0, i32 0
  %56 = load ptr, ptr %7, align 8, !tbaa !167
  %57 = getelementptr inbounds nuw %struct.SDF_Contour_, ptr %56, i32 0, i32 0
  call void @llvm.memcpy.p0.p0.i64(ptr align 8 %55, ptr align 8 %57, i64 16, i1 false), !tbaa.struct !146
  %58 = load ptr, ptr %6, align 8, !tbaa !182
  %59 = getelementptr inbounds nuw %struct.SDF_Edge_, ptr %58, i32 0, i32 1
  %60 = load ptr, ptr %3, align 8, !tbaa !32
  call void @llvm.memcpy.p0.p0.i64(ptr align 8 %59, ptr align 8 %60, i64 16, i1 false), !tbaa.struct !146
  %61 = load ptr, ptr %7, align 8, !tbaa !167
  %62 = getelementptr inbounds nuw %struct.SDF_Contour_, ptr %61, i32 0, i32 1
  %63 = load ptr, ptr %62, align 8, !tbaa !187
  %64 = load ptr, ptr %6, align 8, !tbaa !182
  %65 = getelementptr inbounds nuw %struct.SDF_Edge_, ptr %64, i32 0, i32 5
  store ptr %63, ptr %65, align 8, !tbaa !188
  %66 = load ptr, ptr %6, align 8, !tbaa !182
  %67 = load ptr, ptr %7, align 8, !tbaa !167
  %68 = getelementptr inbounds nuw %struct.SDF_Contour_, ptr %67, i32 0, i32 1
  store ptr %66, ptr %68, align 8, !tbaa !187
  %69 = load ptr, ptr %7, align 8, !tbaa !167
  %70 = getelementptr inbounds nuw %struct.SDF_Contour_, ptr %69, i32 0, i32 0
  %71 = load ptr, ptr %3, align 8, !tbaa !32
  call void @llvm.memcpy.p0.p0.i64(ptr align 8 %70, ptr align 8 %71, i64 16, i1 false), !tbaa.struct !146
  br label %72

72:                                               ; preds = %51, %48, %41, %19
  %73 = load i32, ptr %8, align 4, !tbaa !31
  call void @llvm.lifetime.end.p0(i64 8, ptr %9) #7
  call void @llvm.lifetime.end.p0(i64 4, ptr %8) #7
  call void @llvm.lifetime.end.p0(i64 8, ptr %7) #7
  call void @llvm.lifetime.end.p0(i64 8, ptr %6) #7
  call void @llvm.lifetime.end.p0(i64 8, ptr %5) #7
  ret i32 %73
}

; Function Attrs: nounwind uwtable
define internal i32 @sdf_conic_to(ptr noundef %0, ptr noundef %1, ptr noundef %2) #0 {
  %4 = alloca ptr, align 8
  %5 = alloca ptr, align 8
  %6 = alloca ptr, align 8
  %7 = alloca ptr, align 8
  %8 = alloca ptr, align 8
  %9 = alloca ptr, align 8
  %10 = alloca i32, align 4
  %11 = alloca ptr, align 8
  store ptr %0, ptr %4, align 8, !tbaa !32
  store ptr %1, ptr %5, align 8, !tbaa !32
  store ptr %2, ptr %6, align 8, !tbaa !85
  call void @llvm.lifetime.start.p0(i64 8, ptr %7) #7
  %12 = load ptr, ptr %6, align 8, !tbaa !85
  store ptr %12, ptr %7, align 8, !tbaa !121
  call void @llvm.lifetime.start.p0(i64 8, ptr %8) #7
  store ptr null, ptr %8, align 8, !tbaa !182
  call void @llvm.lifetime.start.p0(i64 8, ptr %9) #7
  store ptr null, ptr %9, align 8, !tbaa !167
  call void @llvm.lifetime.start.p0(i64 4, ptr %10) #7
  store i32 0, ptr %10, align 4, !tbaa !31
  call void @llvm.lifetime.start.p0(i64 8, ptr %11) #7
  %13 = load ptr, ptr %7, align 8, !tbaa !121
  %14 = getelementptr inbounds nuw %struct.SDF_Shape_, ptr %13, i32 0, i32 0
  %15 = load ptr, ptr %14, align 8, !tbaa !169
  store ptr %15, ptr %11, align 8, !tbaa !38
  %16 = load ptr, ptr %4, align 8, !tbaa !32
  %17 = icmp ne ptr %16, null
  br i1 %17, label %18, label %24

18:                                               ; preds = %3
  %19 = load ptr, ptr %5, align 8, !tbaa !32
  %20 = icmp ne ptr %19, null
  br i1 %20, label %21, label %24

21:                                               ; preds = %18
  %22 = load ptr, ptr %6, align 8, !tbaa !85
  %23 = icmp ne ptr %22, null
  br i1 %23, label %25, label %24

24:                                               ; preds = %21, %18, %3
  store i32 6, ptr %10, align 4, !tbaa !31
  br label %99

25:                                               ; preds = %21
  %26 = load ptr, ptr %7, align 8, !tbaa !121
  %27 = getelementptr inbounds nuw %struct.SDF_Shape_, ptr %26, i32 0, i32 1
  %28 = load ptr, ptr %27, align 8, !tbaa !171
  store ptr %28, ptr %9, align 8, !tbaa !167
  %29 = load ptr, ptr %9, align 8, !tbaa !167
  %30 = getelementptr inbounds nuw %struct.SDF_Contour_, ptr %29, i32 0, i32 0
  %31 = getelementptr inbounds nuw %struct.FT_Vector_, ptr %30, i32 0, i32 0
  %32 = load i64, ptr %31, align 8, !tbaa !183
  %33 = load ptr, ptr %4, align 8, !tbaa !32
  %34 = getelementptr inbounds nuw %struct.FT_Vector_, ptr %33, i32 0, i32 0
  %35 = load i64, ptr %34, align 8, !tbaa !67
  %36 = icmp eq i64 %32, %35
  br i1 %36, label %37, label %46

37:                                               ; preds = %25
  %38 = load ptr, ptr %9, align 8, !tbaa !167
  %39 = getelementptr inbounds nuw %struct.SDF_Contour_, ptr %38, i32 0, i32 0
  %40 = getelementptr inbounds nuw %struct.FT_Vector_, ptr %39, i32 0, i32 1
  %41 = load i64, ptr %40, align 8, !tbaa !184
  %42 = load ptr, ptr %4, align 8, !tbaa !32
  %43 = getelementptr inbounds nuw %struct.FT_Vector_, ptr %42, i32 0, i32 1
  %44 = load i64, ptr %43, align 8, !tbaa !68
  %45 = icmp eq i64 %41, %44
  br i1 %45, label %62, label %46

46:                                               ; preds = %37, %25
  %47 = load ptr, ptr %4, align 8, !tbaa !32
  %48 = getelementptr inbounds nuw %struct.FT_Vector_, ptr %47, i32 0, i32 0
  %49 = load i64, ptr %48, align 8, !tbaa !67
  %50 = load ptr, ptr %5, align 8, !tbaa !32
  %51 = getelementptr inbounds nuw %struct.FT_Vector_, ptr %50, i32 0, i32 0
  %52 = load i64, ptr %51, align 8, !tbaa !67
  %53 = icmp eq i64 %49, %52
  br i1 %53, label %54, label %66

54:                                               ; preds = %46
  %55 = load ptr, ptr %4, align 8, !tbaa !32
  %56 = getelementptr inbounds nuw %struct.FT_Vector_, ptr %55, i32 0, i32 1
  %57 = load i64, ptr %56, align 8, !tbaa !68
  %58 = load ptr, ptr %5, align 8, !tbaa !32
  %59 = getelementptr inbounds nuw %struct.FT_Vector_, ptr %58, i32 0, i32 1
  %60 = load i64, ptr %59, align 8, !tbaa !68
  %61 = icmp eq i64 %57, %60
  br i1 %61, label %62, label %66

62:                                               ; preds = %54, %37
  %63 = load ptr, ptr %5, align 8, !tbaa !32
  %64 = load ptr, ptr %6, align 8, !tbaa !85
  %65 = call i32 @sdf_line_to(ptr noundef %63, ptr noundef %64)
  br label %99

66:                                               ; preds = %54, %46
  br label %67

67:                                               ; preds = %66
  %68 = load ptr, ptr %11, align 8, !tbaa !38
  %69 = call i32 @sdf_edge_new(ptr noundef %68, ptr noundef %8)
  store i32 %69, ptr %10, align 4, !tbaa !31
  %70 = load i32, ptr %10, align 4, !tbaa !31
  %71 = icmp ne i32 %70, 0
  br i1 %71, label %72, label %73

72:                                               ; preds = %67
  br label %99

73:                                               ; preds = %67
  br label %74

74:                                               ; preds = %73
  br label %75

75:                                               ; preds = %74
  %76 = load ptr, ptr %8, align 8, !tbaa !182
  %77 = getelementptr inbounds nuw %struct.SDF_Edge_, ptr %76, i32 0, i32 4
  store i32 2, ptr %77, align 8, !tbaa !185
  %78 = load ptr, ptr %8, align 8, !tbaa !182
  %79 = getelementptr inbounds nuw %struct.SDF_Edge_, ptr %78, i32 0, i32 0
  %80 = load ptr, ptr %9, align 8, !tbaa !167
  %81 = getelementptr inbounds nuw %struct.SDF_Contour_, ptr %80, i32 0, i32 0
  call void @llvm.memcpy.p0.p0.i64(ptr align 8 %79, ptr align 8 %81, i64 16, i1 false), !tbaa.struct !146
  %82 = load ptr, ptr %8, align 8, !tbaa !182
  %83 = getelementptr inbounds nuw %struct.SDF_Edge_, ptr %82, i32 0, i32 2
  %84 = load ptr, ptr %4, align 8, !tbaa !32
  call void @llvm.memcpy.p0.p0.i64(ptr align 8 %83, ptr align 8 %84, i64 16, i1 false), !tbaa.struct !146
  %85 = load ptr, ptr %8, align 8, !tbaa !182
  %86 = getelementptr inbounds nuw %struct.SDF_Edge_, ptr %85, i32 0, i32 1
  %87 = load ptr, ptr %5, align 8, !tbaa !32
  call void @llvm.memcpy.p0.p0.i64(ptr align 8 %86, ptr align 8 %87, i64 16, i1 false), !tbaa.struct !146
  %88 = load ptr, ptr %9, align 8, !tbaa !167
  %89 = getelementptr inbounds nuw %struct.SDF_Contour_, ptr %88, i32 0, i32 1
  %90 = load ptr, ptr %89, align 8, !tbaa !187
  %91 = load ptr, ptr %8, align 8, !tbaa !182
  %92 = getelementptr inbounds nuw %struct.SDF_Edge_, ptr %91, i32 0, i32 5
  store ptr %90, ptr %92, align 8, !tbaa !188
  %93 = load ptr, ptr %8, align 8, !tbaa !182
  %94 = load ptr, ptr %9, align 8, !tbaa !167
  %95 = getelementptr inbounds nuw %struct.SDF_Contour_, ptr %94, i32 0, i32 1
  store ptr %93, ptr %95, align 8, !tbaa !187
  %96 = load ptr, ptr %9, align 8, !tbaa !167
  %97 = getelementptr inbounds nuw %struct.SDF_Contour_, ptr %96, i32 0, i32 0
  %98 = load ptr, ptr %5, align 8, !tbaa !32
  call void @llvm.memcpy.p0.p0.i64(ptr align 8 %97, ptr align 8 %98, i64 16, i1 false), !tbaa.struct !146
  br label %99

99:                                               ; preds = %75, %72, %62, %24
  %100 = load i32, ptr %10, align 4, !tbaa !31
  call void @llvm.lifetime.end.p0(i64 8, ptr %11) #7
  call void @llvm.lifetime.end.p0(i64 4, ptr %10) #7
  call void @llvm.lifetime.end.p0(i64 8, ptr %9) #7
  call void @llvm.lifetime.end.p0(i64 8, ptr %8) #7
  call void @llvm.lifetime.end.p0(i64 8, ptr %7) #7
  ret i32 %100
}