; Function Attrs: nounwind uwtable
define internal i32 @sdf_conic_to(ptr noundef readonly %0, ptr noundef readonly %1, ptr noundef readonly captures(none) %2) #2 {
  %4 = alloca i32, align 4
  %5 = alloca i32, align 4
  %6 = load ptr, ptr %2, align 8, !tbaa !99
  %7 = icmp ne ptr %0, null
  %8 = icmp ne ptr %1, null
  %or.cond = and i1 %7, %8
  br i1 %or.cond, label %9, label %sdf_line_to.exit

9:                                                ; preds = %3
  %10 = getelementptr inbounds nuw i8, ptr %2, i64 8
  %11 = load ptr, ptr %10, align 8, !tbaa !129
  %12 = load i64, ptr %11, align 8, !tbaa !171
  %13 = load i64, ptr %0, align 8, !tbaa !52
  %14 = icmp eq i64 %12, %13
  br i1 %14, label %15, label %21

15:                                               ; preds = %9
  %16 = getelementptr inbounds nuw i8, ptr %11, i64 8
  %17 = load i64, ptr %16, align 8, !tbaa !172
  %18 = getelementptr inbounds nuw i8, ptr %0, i64 8
  %19 = load i64, ptr %18, align 8, !tbaa !53
  %20 = icmp eq i64 %17, %19
  br i1 %20, label %._crit_edge, label %21

._crit_edge:                                      ; preds = %15
  %.pre = load i64, ptr %1, align 8, !tbaa !52
  br label %30

21:                                               ; preds = %15, %9
  %22 = load i64, ptr %1, align 8, !tbaa !52
  %23 = icmp eq i64 %13, %22
  br i1 %23, label %24, label %49

24:                                               ; preds = %21
  %25 = getelementptr inbounds nuw i8, ptr %0, i64 8
  %26 = load i64, ptr %25, align 8, !tbaa !53
  %27 = getelementptr inbounds nuw i8, ptr %1, i64 8
  %28 = load i64, ptr %27, align 8, !tbaa !53
  %29 = icmp eq i64 %26, %28
  br i1 %29, label %30, label %49

30:                                               ; preds = %._crit_edge, %24
  %31 = phi i64 [ %.pre, %._crit_edge ], [ %13, %24 ]
  %32 = icmp eq i64 %12, %31
  br i1 %32, label %33, label %39

33:                                               ; preds = %30
  %34 = getelementptr inbounds nuw i8, ptr %11, i64 8
  %35 = load i64, ptr %34, align 8, !tbaa !172
  %36 = getelementptr inbounds nuw i8, ptr %1, i64 8
  %37 = load i64, ptr %36, align 8, !tbaa !53
  %38 = icmp eq i64 %35, %37
  br i1 %38, label %sdf_line_to.exit, label %39

39:                                               ; preds = %33, %30
  call void @llvm.lifetime.start.p0(i64 4, ptr nonnull %5) #11
  store i32 0, ptr %5, align 4, !tbaa !21
  %.not.i.i = icmp eq ptr %6, null
  br i1 %.not.i.i, label %sdf_edge_new.exit.thread.i, label %40

40:                                               ; preds = %39
  %41 = call ptr @ft_mem_qalloc(ptr noundef nonnull %6, i64 noundef 80, ptr noundef nonnull %5) #11
  %42 = load i32, ptr %5, align 4, !tbaa !21
  %.not8.i.i = icmp eq i32 %42, 0
  br i1 %.not8.i.i, label %43, label %sdf_edge_new.exit.thread.i

sdf_edge_new.exit.thread.i:                       ; preds = %40, %39
  call void @llvm.lifetime.end.p0(i64 4, ptr nonnull %5) #11
  br label %sdf_line_to.exit

43:                                               ; preds = %40
  call void @llvm.memset.p0.i64(ptr noundef nonnull align 8 dereferenceable(80) %41, i8 0, i64 80, i1 false)
  call void @llvm.lifetime.end.p0(i64 4, ptr nonnull %5) #11
  %44 = getelementptr inbounds nuw i8, ptr %41, i64 64
  store i32 1, ptr %44, align 8, !tbaa !136
  call void @llvm.memcpy.p0.p0.i64(ptr noundef nonnull align 8 dereferenceable(16) %41, ptr noundef nonnull align 8 dereferenceable(16) %11, i64 16, i1 false), !tbaa.struct !119
  %45 = getelementptr inbounds nuw i8, ptr %41, i64 16
  call void @llvm.memcpy.p0.p0.i64(ptr noundef nonnull align 8 dereferenceable(16) %45, ptr noundef nonnull readonly align 8 dereferenceable(16) %1, i64 16, i1 false), !tbaa.struct !119
  %46 = getelementptr inbounds nuw i8, ptr %11, i64 16
  %47 = load ptr, ptr %46, align 8, !tbaa !135
  %48 = getelementptr inbounds nuw i8, ptr %41, i64 72
  store ptr %47, ptr %48, align 8, !tbaa !146
  store ptr %41, ptr %46, align 8, !tbaa !135
  call void @llvm.memcpy.p0.p0.i64(ptr noundef nonnull align 8 dereferenceable(16) %11, ptr noundef nonnull readonly align 8 dereferenceable(16) %1, i64 16, i1 false), !tbaa.struct !119
  br label %sdf_line_to.exit

49:                                               ; preds = %21, %24
  call void @llvm.lifetime.start.p0(i64 4, ptr nonnull %4) #11
  store i32 0, ptr %4, align 4, !tbaa !21
  %.not.i31 = icmp eq ptr %6, null
  br i1 %.not.i31, label %sdf_edge_new.exit.thread, label %50

50:                                               ; preds = %49
  %51 = call ptr @ft_mem_qalloc(ptr noundef nonnull %6, i64 noundef 80, ptr noundef nonnull %4) #11
  %52 = load i32, ptr %4, align 4, !tbaa !21
  %.not8.i = icmp eq i32 %52, 0
  br i1 %.not8.i, label %53, label %sdf_edge_new.exit.thread

sdf_edge_new.exit.thread:                         ; preds = %50, %49
  %.ph = phi i32 [ 6, %49 ], [ %52, %50 ]
  call void @llvm.lifetime.end.p0(i64 4, ptr nonnull %4) #11
  br label %sdf_line_to.exit

53:                                               ; preds = %50
  call void @llvm.memset.p0.i64(ptr noundef nonnull align 8 dereferenceable(80) %51, i8 0, i64 80, i1 false)
  call void @llvm.lifetime.end.p0(i64 4, ptr nonnull %4) #11
  %54 = getelementptr inbounds nuw i8, ptr %51, i64 64
  store i32 2, ptr %54, align 8, !tbaa !136
  call void @llvm.memcpy.p0.p0.i64(ptr noundef nonnull align 8 dereferenceable(16) %51, ptr noundef nonnull align 8 dereferenceable(16) %11, i64 16, i1 false), !tbaa.struct !119
  %55 = getelementptr inbounds nuw i8, ptr %51, i64 32
  call void @llvm.memcpy.p0.p0.i64(ptr noundef nonnull align 8 dereferenceable(16) %55, ptr noundef nonnull align 8 dereferenceable(16) %0, i64 16, i1 false), !tbaa.struct !119
  %56 = getelementptr inbounds nuw i8, ptr %51, i64 16
  call void @llvm.memcpy.p0.p0.i64(ptr noundef nonnull align 8 dereferenceable(16) %56, ptr noundef nonnull align 8 dereferenceable(16) %1, i64 16, i1 false), !tbaa.struct !119
  %57 = getelementptr inbounds nuw i8, ptr %11, i64 16
  %58 = load ptr, ptr %57, align 8, !tbaa !135
  %59 = getelementptr inbounds nuw i8, ptr %51, i64 72
  store ptr %58, ptr %59, align 8, !tbaa !146
  store ptr %51, ptr %57, align 8, !tbaa !135
  call void @llvm.memcpy.p0.p0.i64(ptr noundef nonnull align 8 dereferenceable(16) %11, ptr noundef nonnull align 8 dereferenceable(16) %1, i64 16, i1 false), !tbaa.struct !119
  br label %sdf_line_to.exit

sdf_line_to.exit:                                 ; preds = %sdf_edge_new.exit.thread, %43, %sdf_edge_new.exit.thread.i, %33, %3, %53
  %.0 = phi i32 [ 0, %53 ], [ 6, %3 ], [ 0, %33 ], [ 0, %sdf_edge_new.exit.thread.i ], [ 0, %43 ], [ %.ph, %sdf_edge_new.exit.thread ]
  ret i32 %.0
}